target datalayout = "e-m:e-p270:32:32-p271:32:32-p272:64:64-i64:64-i128:128-f80:128-n8:16:32:64-S128"
target triple = "x86_64-pc-linux-gnu"

%"class.draco::StdioFileReader" = type { %"class.draco::FileReaderInterface", ptr }
%"class.draco::FileReaderInterface" = type { ptr }
%"struct.std::_Vector_base" = type { %"struct.std::_Vector_base<char, std::allocator<char>>::_Vector_impl" }
%"struct.std::_Vector_base<char, std::allocator<char>>::_Vector_impl" = type { %"struct.std::_Vector_base<char, std::allocator<char>>::_Vector_impl_data" }
%"struct.std::_Vector_base<char, std::allocator<char>>::_Vector_impl_data" = type { ptr, ptr, ptr }

@stderr = external global ptr, align 8
@.str.1 = private unnamed_addr constant [17 x i8] c"%s:%d (%s): %s.\0A\00", align 1
@.str.2 = private unnamed_addr constant [123 x i8] c"generated/home/dtcxzyw/WorkSpace/Projects/compilers/llvm-opt-benchmark/bench/draco/draco/src/draco/io/stdio_file_reader.cc\00", align 1
@__func__._ZN5draco15StdioFileReader16ReadFileToBufferEPSt6vectorIcSaIcEE = private unnamed_addr constant [17 x i8] c"ReadFileToBuffer\00", align 1
@.str.4 = private unnamed_addr constant [41 x i8] c"Unable to obtain file size or file empty\00", align 1

; Function Attrs: mustprogress nounwind uwtable
define linkonce_odr void @_ZNSt12_Destroy_auxILb1EE9__destroyIPcEEvT_S3_(ptr noundef %0, ptr noundef %1) #3 comdat align 2 {
  %3 = alloca ptr, align 8
  %4 = alloca ptr, align 8
  store ptr %0, ptr %3, align 8
  store ptr %1, ptr %4, align 8
  ret void
}

; Function Attrs: mustprogress uwtable
define linkonce_odr void @_ZSt8_DestroyIPcEvT_S1_(ptr noundef %0, ptr noundef %1) #2 comdat {
  %3 = alloca ptr, align 8
  %4 = alloca ptr, align 8
  store ptr %0, ptr %3, align 8
  store ptr %1, ptr %4, align 8
  %5 = load ptr, ptr %3, align 8
  %6 = load ptr, ptr %4, align 8
  call void @_ZNSt12_Destroy_auxILb1EE9__destroyIPcEEvT_S3_(ptr noundef %5, ptr noundef %6)
  ret void
}

; Function Attrs: noreturn nounwind uwtable
define linkonce_odr hidden void @__clang_call_terminate(ptr noundef %0) #4 comdat {
  %2 = call ptr @__cxa_begin_catch(ptr %0) #13
  call void @_ZSt9terminatev() #16
  unreachable
}

; Function Attrs: mustprogress uwtable
define linkonce_odr void @_ZSt8_DestroyIPccEvT_S1_RSaIT0_E(ptr noundef %0, ptr noundef %1, ptr noundef nonnull align 1 dereferenceable(1) %2) #2 comdat {
  %4 = alloca ptr, align 8
  %5 = alloca ptr, align 8
  %6 = alloca ptr, align 8
  store ptr %0, ptr %4, align 8
  store ptr %1, ptr %5, align 8
  store ptr %2, ptr %6, align 8
  %7 = load ptr, ptr %4, align 8
  %8 = load ptr, ptr %5, align 8
  call void @_ZSt8_DestroyIPcEvT_S1_(ptr noundef %7, ptr noundef %8)
  ret void
}

; Function Attrs: mustprogress nounwind uwtable
define linkonce_odr noundef nonnull align 1 dereferenceable(1) ptr @_ZNSt12_Vector_baseIcSaIcEE19_M_get_Tp_allocatorEv(ptr noundef nonnull align 8 dereferenceable(24) %0) #3 comdat align 2 {
  %2 = alloca ptr, align 8
  store ptr %0, ptr %2, align 8
  %3 = load ptr, ptr %2, align 8
  %4 = getelementptr inbounds %"struct.std::_Vector_base", ptr %3, i32 0, i32 0
  ret ptr %4
}

; Function Attrs: mustprogress nounwind uwtable
define linkonce_odr noundef ptr @_ZNKSt6vectorIcSaIcEE11_M_data_ptrIcEEPT_S4_(ptr noundef nonnull align 8 dereferenceable(24) %0, ptr noundef %1) #3 comdat align 2 {
  %3 = alloca ptr, align 8
  %4 = alloca ptr, align 8
  store ptr %0, ptr %3, align 8
  store ptr %1, ptr %4, align 8
  %5 = load ptr, ptr %4, align 8
  ret ptr %5
}

; Function Attrs: mustprogress nounwind uwtable
define linkonce_odr void @_ZNSt6vectorIcSaIcEE15_M_erase_at_endEPc(ptr noundef nonnull align 8 dereferenceable(24) %0, ptr noundef %1) #3 comdat align 2 personality ptr @__gxx_personality_v0 {
  %3 = alloca ptr, align 8
  %4 = alloca ptr, align 8
  %5 = alloca i64, align 8
  store ptr %0, ptr %3, align 8
  store ptr %1, ptr %4, align 8
  %6 = load ptr, ptr %3, align 8
  %7 = getelementptr inbounds %"struct.std::_Vector_base", ptr %6, i32 0, i32 0
  %8 = getelementptr inbounds %"struct.std::_Vector_base<char, std::allocator<char>>::_Vector_impl_data", ptr %7, i32 0, i32 1
  %9 = load ptr, ptr %8, align 8
  %10 = load ptr, ptr %4, align 8
  %11 = ptrtoint ptr %9 to i64
  %12 = ptrtoint ptr %10 to i64
  %13 = sub i64 %11, %12
  store i64 %13, ptr %5, align 8
  %14 = load i64, ptr %5, align 8
  %15 = icmp ne i64 %14, 0
  br i1 %15, label %16, label %26

16:                                               ; preds = %2
  %17 = load ptr, ptr %4, align 8
  %18 = getelementptr inbounds %"struct.std::_Vector_base", ptr %6, i32 0, i32 0
  %19 = getelementptr inbounds %"struct.std::_Vector_base<char, std::allocator<char>>::_Vector_impl_data", ptr %18, i32 0, i32 1
  %20 = load ptr, ptr %19, align 8
  %21 = call noundef nonnull align 1 dereferenceable(1) ptr @_ZNSt12_Vector_baseIcSaIcEE19_M_get_Tp_allocatorEv(ptr noundef nonnull align 8 dereferenceable(24) %6) #13
  invoke void @_ZSt8_DestroyIPccEvT_S1_RSaIT0_E(ptr noundef %17, ptr noundef %20, ptr noundef nonnull align 1 dereferenceable(1) %21)
          to label %22 unwind label %27

22:                                               ; preds = %16
  %23 = load ptr, ptr %4, align 8
  %24 = getelementptr inbounds %"struct.std::_Vector_base", ptr %6, i32 0, i32 0
  %25 = getelementptr inbounds %"struct.std::_Vector_base<char, std::allocator<char>>::_Vector_impl_data", ptr %24, i32 0, i32 1
  store ptr %23, ptr %25, align 8
  br label %26

26:                                               ; preds = %22, %2
  ret void

27:                                               ; preds = %16
  %28 = landingpad { ptr, i32 }
          catch ptr null
  %29 = extractvalue { ptr, i32 } %28, 0
  call void @__clang_call_terminate(ptr %29) #16
  unreachable
}

; Function Attrs: mustprogress nounwind uwtable
define linkonce_odr noundef ptr @_ZNSt6vectorIcSaIcEE4dataEv(ptr noundef nonnull align 8 dereferenceable(24) %0) #3 comdat align 2 {
  %2 = alloca ptr, align 8
  store ptr %0, ptr %2, align 8
  %3 = load ptr, ptr %2, align 8
  %4 = getelementptr inbounds %"struct.std::_Vector_base", ptr %3, i32 0, i32 0
  %5 = getelementptr inbounds %"struct.std::_Vector_base<char, std::allocator<char>>::_Vector_impl_data", ptr %4, i32 0, i32 0
  %6 = load ptr, ptr %5, align 8
  %7 = call noundef ptr @_ZNKSt6vectorIcSaIcEE11_M_data_ptrIcEEPT_S4_(ptr noundef nonnull align 8 dereferenceable(24) %3, ptr noundef %6) #13
  ret ptr %7
}

; Function Attrs: mustprogress nounwind uwtable
define linkonce_odr void @_ZNSt6vectorIcSaIcEE5clearEv(ptr noundef nonnull align 8 dereferenceable(24) %0) #3 comdat align 2 {
  %2 = alloca ptr, align 8
  store ptr %0, ptr %2, align 8
  %3 = load ptr, ptr %2, align 8
  %4 = getelementptr inbounds %"struct.std::_Vector_base", ptr %3, i32 0, i32 0
  %5 = getelementptr inbounds %"struct.std::_Vector_base<char, std::allocator<char>>::_Vector_impl_data", ptr %4, i32 0, i32 0
  %6 = load ptr, ptr %5, align 8
  call void @_ZNSt6vectorIcSaIcEE15_M_erase_at_endEPc(ptr noundef nonnull align 8 dereferenceable(24) %3, ptr noundef %6) #13
  ret void
}

; Function Attrs: mustprogress uwtable
define noundef zeroext i1 @_ZN5draco15StdioFileReader16ReadFileToBufferEPSt6vectorIcSaIcEE(ptr noundef nonnull align 8 dereferenceable(16) %0, ptr noundef %1) unnamed_addr #2 align 2 {
  %3 = alloca i1, align 1
  %4 = alloca ptr, align 8
  %5 = alloca ptr, align 8
  %6 = alloca i64, align 8
  store ptr %0, ptr %4, align 8
  store ptr %1, ptr %5, align 8
  %7 = load ptr, ptr %4, align 8
  %8 = load ptr, ptr %5, align 8
  %9 = icmp eq ptr %8, null
  br i1 %9, label %10, label %11

10:                                               ; preds = %2
  store i1 false, ptr %3, align 1
  br label %35

11:                                               ; preds = %2
  %12 = load ptr, ptr %5, align 8
  call void @_ZNSt6vectorIcSaIcEE5clearEv(ptr noundef nonnull align 8 dereferenceable(24) %12) #13
  %13 = load ptr, ptr %7, align 8
  %14 = getelementptr inbounds ptr, ptr %13, i64 4
  %15 = load ptr, ptr %14, align 8
  %16 = call noundef i64 %15(ptr noundef nonnull align 8 dereferenceable(16) %7)
  store i64 %16, ptr %6, align 8
  %17 = load i64, ptr %6, align 8
  %18 = icmp eq i64 %17, 0
  br i1 %18, label %19, label %24

19:                                               ; preds = %11
  br label %20

20:                                               ; preds = %19
  %21 = load ptr, ptr @stderr, align 8
  %22 = call i32 (ptr, ptr, ...) @fprintf(ptr noundef %21, ptr noundef @.str.1, ptr noundef @.str.2, i32 noundef 60, ptr noundef @__func__._ZN5draco15StdioFileReader16ReadFileToBufferEPSt6vectorIcSaIcEE, ptr noundef @.str.4) #13
  br label %23

23:                                               ; preds = %20
  store i1 false, ptr %3, align 1
  br label %35

24:                                               ; preds = %11
  %25 = load ptr, ptr %5, align 8
  %26 = load i64, ptr %6, align 8
  call void @_ZNSt6vectorIcSaIcEE6resizeEm(ptr noundef nonnull align 8 dereferenceable(24) %25, i64 noundef %26)
  %27 = load ptr, ptr %5, align 8
  %28 = call noundef ptr @_ZNSt6vectorIcSaIcEE4dataEv(ptr noundef nonnull align 8 dereferenceable(24) %27) #13
  %29 = load i64, ptr %6, align 8
  %30 = getelementptr inbounds %"class.draco::StdioFileReader", ptr %7, i32 0, i32 1
  %31 = load ptr, ptr %30, align 8
  %32 = call i64 @fread(ptr noundef %28, i64 noundef 1, i64 noundef %29, ptr noundef %31)
  %33 = load i64, ptr %6, align 8
  %34 = icmp eq i64 %32, %33
  store i1 %34, ptr %3, align 1
  br label %35

35:                                               ; preds = %24, %23, %10
  %36 = load i1, ptr %3, align 1
  ret i1 %36
}