; Function Attrs: mustprogress uwtable
define noundef zeroext i1 @_ZN5draco15StdioFileReader16ReadFileToBufferEPSt6vectorIcSaIcEE(ptr noundef nonnull align 8 dereferenceable(16) %0, ptr noundef %1) unnamed_addr #7 align 2 personality ptr @__gxx_personality_v0 {
  %3 = icmp eq ptr %1, null
  br i1 %3, label %23, label %4

4:                                                ; preds = %2
  %5 = load ptr, ptr %1, align 8
  %6 = getelementptr inbounds i8, ptr %1, i64 8
  %7 = load ptr, ptr %6, align 8
  %.not.i.i = icmp eq ptr %7, %5
  br i1 %.not.i.i, label %_ZNSt6vectorIcSaIcEE5clearEv.exit, label %8

8:                                                ; preds = %4
  store ptr %5, ptr %6, align 8
  br label %_ZNSt6vectorIcSaIcEE5clearEv.exit

_ZNSt6vectorIcSaIcEE5clearEv.exit:                ; preds = %4, %8
  %9 = load ptr, ptr %0, align 8
  %10 = getelementptr inbounds i8, ptr %9, i64 32
  %11 = load ptr, ptr %10, align 8
  %12 = tail call noundef i64 %11(ptr noundef nonnull align 8 dereferenceable(16) %0)
  %13 = icmp eq i64 %12, 0
  br i1 %13, label %14, label %17

14:                                               ; preds = %_ZNSt6vectorIcSaIcEE5clearEv.exit
  %15 = load ptr, ptr @stderr, align 8
  %16 = tail call i32 (ptr, ptr, ...) @fprintf(ptr noundef %15, ptr noundef nonnull @.str.1, ptr noundef nonnull @.str.2, i32 noundef 60, ptr noundef nonnull @__func__._ZN5draco15StdioFileReader16ReadFileToBufferEPSt6vectorIcSaIcEE, ptr noundef nonnull @.str.4) #17
  br label %23

17:                                               ; preds = %_ZNSt6vectorIcSaIcEE5clearEv.exit
  tail call void @_ZNSt6vectorIcSaIcEE6resizeEm(ptr noundef nonnull align 8 dereferenceable(24) %1, i64 noundef %12)
  %18 = load ptr, ptr %1, align 8
  %19 = getelementptr inbounds i8, ptr %0, i64 8
  %20 = load ptr, ptr %19, align 8
  %21 = tail call i64 @fread(ptr noundef %18, i64 noundef 1, i64 noundef %12, ptr noundef %20)
  %22 = icmp eq i64 %21, %12
  br label %23

23:                                               ; preds = %2, %17, %14
  %.0 = phi i1 [ false, %14 ], [ %22, %17 ], [ false, %2 ]
  ret i1 %.0
}